Certificate:
    Data:
        Version: 3 (0x2)
        Serial Number:
            bb:3e:f8:c5:b5:d1:1a:d6
    Signature Algorithm: sha256WithRSAEncryption
        Issuer: CN=Server Root CA
        Validity
            Not Before: Oct 14 16:29:13 2016 GMT
            Not After : Oct 15 16:29:13 2017 GMT
        Subject: CN=Server Root CA
        Subject Public Key Info:
            Public Key Algorithm: rsaEncryption
                Public-Key: (2048 bit)
                Modulus:
                    00:df:67:0e:df:c4:9a:9b:77:58:6d:c4:2c:1f:d7:
                    e4:ac:91:07:71:28:0f:cf:9b:fd:72:80:35:55:e3:
                    1b:06:8b:e9:b3:5d:95:c3:ee:42:e4:9f:e5:5f:7f:
                    52:2a:df:6d:99:5c:df:13:e9:0a:3a:a7:77:1b:7b:
                    7e:f0:ff:09:74:a7:c5:85:75:84:50:8f:ef:64:03:
                    5e:66:f0:b9:ec:1c:3d:e7:3f:11:52:51:b3:a4:e2:
                    a4:ac:fe:bc:12:d5:cb:48:58:91:78:9d:45:b8:bf:
                    1c:e0:60:42:12:58:c6:9b:93:95:55:5b:09:77:44:
                    bb:b1:92:bd:63:a3:16:5d:e7:e0:d9:24:b3:47:f4:
                    b7:f0:c9:f4:b9:0e:b1:00:77:3e:28:90:3a:a1:2a:
                    da:5b:7e:5d:ce:e5:5e:4b:02:b1:53:d7:b9:f7:e5:
                    72:01:b5:a5:5c:a7:ca:17:90:44:08:68:9a:2c:21:
                    67:69:ec:8f:5b:91:1e:58:00:ae:3d:59:ef:8f:37:
                    f8:fd:4c:a6:91:0d:e1:51:69:7a:8a:2f:a3:00:62:
                    73:58:79:3f:6b:ef:af:f8:18:fb:7b:b8:aa:51:8c:
                    34:5e:73:38:db:21:81:b4:05:29:3c:16:aa:4d:b8:
                    7b:43:ff:7e:ac:ca:8f:80:58:6c:21:53:9a:d2:dd:
                    3b:c7
                Exponent: 65537 (0x10001)
        X509v3 extensions:
            X509v3 Basic Constraints: critical
                CA:TRUE
            X509v3 Subject Key Identifier: 
                65:83:38:CB:10:C4:D9:0F:F1:1C:A0:BC:0C:D2:13:A8:C3:8D:CA:C6
            X509v3 Key Usage: critical
                Certificate Sign, CRL Sign
    Signature Algorithm: sha256WithRSAEncryption
         b2:9c:8d:dd:82:77:93:65:cf:32:28:c0:5b:13:b5:a5:8b:73:
         ac:1b:8a:1d:52:9c:fe:36:cb:d6:e9:24:c0:0f:a2:f0:93:6e:
         4e:c5:17:78:4d:43:eb:cb:29:29:2e:ae:20:79:ac:02:6d:4b:
         6b:df:ed:ef:23:5c:d8:25:c7:83:b0:8e:0e:50:5d:6e:54:ba:
         47:01:d2:c7:12:35:6c:08:bf:c1:2e:29:9b:3a:8e:8a:89:30:
         c8:c5:71:df:ac:71:de:2a:4f:ae:af:b2:00:40:0d:15:f2:af:
         32:c0:47:46:8a:5d:af:da:c0:76:93:03:d1:e4:b0:90:40:5b:
         e5:d4:1a:d8:a2:c0:a6:95:d2:6d:56:d4:11:0c:72:9b:a6:39:
         50:db:45:42:dc:cb:c4:b4:38:34:56:cd:e8:a2:87:2d:96:2e:
         86:c2:5b:d9:0c:4a:e0:e5:4a:36:2b:7a:47:8f:2c:0b:31:fe:
         e7:4c:bc:1e:ec:9f:d5:b5:77:02:c0:e4:81:e6:34:a1:66:0f:
         34:c9:b9:12:34:72:33:c9:d9:e3:36:fb:58:a7:e3:6d:1a:88:
         f4:66:cf:8d:3c:9b:20:9a:f9:7b:98:72:66:b7:bc:e8:26:87:
         08:a9:fa:b7:b7:89:78:ea:ca:cf:f0:5a:66:97:bc:3c:4f:43:
         4e:43:11:20
-----BEGIN CERTIFICATE-----
MIIC9zCCAd+gAwIBAgIJALs++MW10RrWMA0GCSqGSIb3DQEBCwUAMBkxFzAVBgNV
BAMMDlNlcnZlciBSb290IENBMB4XDTE2MTAxNDE2MjkxM1oXDTE3MTAxNTE2Mjkx
M1owGTEXMBUGA1UEAwwOU2VydmVyIFJvb3QgQ0EwggEiMA0GCSqGSIb3DQEBAQUA
A4IBDwAwggEKAoIBAQDfZw7fxJqbd1htxCwf1+SskQdxKA/Pm/1ygDVV4xsGi+mz
XZXD7kLkn+Vff1Iq322ZXN8T6Qo6p3cbe37w/wl0p8WFdYRQj+9kA15m8LnsHD3n
PxFSUbOk4qSs/rwS1ctIWJF4nUW4vxzgYEISWMabk5VVWwl3RLuxkr1joxZd5+DZ
JLNH9LfwyfS5DrEAdz4okDqhKtpbfl3O5V5LArFT17n35XIBtaVcp8oXkEQIaJos
IWdp7I9bkR5YAK49We+PN/j9TKaRDeFRaXqKL6MAYnNYeT9r76/4GPt7uKpRjDRe
czjbIYG0BSk8FqpNuHtD/36syo+AWGwhU5rS3TvHAgMBAAGjQjBAMA8GA1UdEwEB
/wQFMAMBAf8wHQYDVR0OBBYEFGWDOMsQxNkP8RygvAzSE6jDjcrGMA4GA1UdDwEB
/wQEAwIBBjANBgkqhkiG9w0BAQsFAAOCAQEAspyN3YJ3k2XPMijAWxO1pYtzrBuK
HVKc/jbL1ukkwA+i8JNuTsUXeE1D68spKS6uIHmsAm1La9/t7yNc2CXHg7CODlBd
blS6RwHSxxI1bAi/wS4pmzqOiokwyMVx36xx3ipPrq+yAEANFfKvMsBHRopdr9rA
dpMD0eSwkEBb5dQa2KLAppXSbVbUEQxym6Y5UNtFQtzLxLQ4NFbN6KKHLZYuhsJb
2QxK4OVKNit6R48sCzH+50y8Huyf1bV3AsDkgeY0oWYPNMm5EjRyM8nZ4zb7WKfj
bRqI9GbPjTybIJr5e5hyZre86CaHCKn6t7eJeOrKz/BaZpe8PE9DTkMRIA==
-----END CERTIFICATE-----
