Certificate:
    Data:
        Version: 3 (0x2)
        Serial Number: 1 (0x1)
    Signature Algorithm: sha256WithRSAEncryption
        Issuer: CN=Server Root CA
        Validity
            Not Before: Oct 14 16:29:14 2016 GMT
            Not After : Oct 15 16:29:14 2017 GMT
        Subject: C=US, ST=Some City, L=Some Location, O=Server Name, CN=193.204.59.123
        Subject Public Key Info:
            Public Key Algorithm: rsaEncryption
                Public-Key: (2048 bit)
                Modulus:
                    00:c6:67:f0:79:93:64:b1:42:94:05:34:8d:a1:78:
                    f8:66:0b:3f:3f:9a:4b:76:6d:cd:b2:53:18:3c:63:
                    20:7c:ca:30:cf:f7:f7:20:09:28:5c:5b:b7:44:ba:
                    6b:b1:7d:c7:fc:ce:b9:da:2b:c0:16:e8:13:b9:8d:
                    46:c4:c0:0e:6b:62:f2:9a:ba:05:3a:d6:bc:2c:22:
                    64:8c:88:64:eb:fd:e2:4e:41:ed:80:d3:f8:8c:45:
                    67:0f:eb:6f:6d:dc:ff:62:09:89:7c:39:2f:f6:c6:
                    08:c3:d5:ed:41:27:df:f7:45:69:a3:df:84:c4:22:
                    aa:0e:5c:d7:22:02:b9:ce:23:12:30:90:50:ae:18:
                    6c:5b:91:4e:bb:0e:19:f3:46:ae:f9:18:92:6e:7e:
                    ec:7f:e2:5d:f7:36:a9:a2:b0:2a:4b:a9:6b:34:70:
                    f1:4f:c5:e2:ac:92:3d:22:9d:d7:ae:b8:34:16:ad:
                    97:97:8e:e2:94:44:50:d5:32:e9:5b:67:a9:e0:f5:
                    3b:ce:53:8f:41:e1:69:98:7b:96:c7:dd:80:a5:8b:
                    11:a9:ad:69:7e:28:c2:f7:fd:98:19:de:4f:3b:6d:
                    23:d6:c7:15:3f:71:fa:2d:23:19:ff:fa:99:cc:8c:
                    fe:dc:4a:53:7a:1c:aa:76:06:e0:2b:ce:18:0b:4a:
                    4f:af
                Exponent: 65537 (0x10001)
        X509v3 extensions:
            X509v3 Basic Constraints: critical
                CA:FALSE
            X509v3 Subject Key Identifier: 
                FA:2E:45:DB:96:E6:47:50:44:84:B8:F2:12:70:7C:2D:B2:9E:21:A3
            X509v3 Authority Key Identifier: 
                keyid:65:83:38:CB:10:C4:D9:0F:F1:1C:A0:BC:0C:D2:13:A8:C3:8D:CA:C6

            X509v3 Extended Key Usage: 
                TLS Web Server Authentication, TLS Web Client Authentication
            X509v3 Subject Alternative Name: 
                DNS:c3lab.poliba.it, IP Address:193.204.59.123
    Signature Algorithm: sha256WithRSAEncryption
         ab:a6:5d:9c:f6:4e:55:be:86:85:ca:15:a8:4d:92:2f:ac:a1:
         c2:7f:cb:5a:ab:9f:4c:d6:18:b8:c1:2f:39:8b:8b:05:e3:56:
         53:88:fc:6a:37:08:5c:10:c4:5a:c7:30:db:8b:6a:88:15:48:
         58:43:b5:e3:97:f2:3f:55:f2:7e:4b:85:f0:73:3a:37:5e:fc:
         47:00:38:82:e9:94:16:22:aa:c0:47:29:4c:54:08:fe:b2:9d:
         8d:be:29:8b:11:ee:26:e9:ea:64:5e:d2:ac:22:58:27:05:29:
         f9:d1:a3:06:d4:28:c2:26:b0:af:c1:e0:3d:8e:bb:cf:15:8a:
         8a:88:ec:b8:29:96:84:ab:cf:40:91:2a:62:ba:cb:52:8e:e0:
         55:da:11:f3:17:4a:04:3d:18:1f:05:5a:6a:57:97:fd:bb:f7:
         ff:70:57:fb:28:01:1f:39:62:95:41:41:a2:95:1b:35:f9:4d:
         72:f1:6c:93:5d:81:23:7c:71:13:90:80:b8:9f:17:90:62:75:
         ec:29:9c:57:77:55:c7:f1:1f:cc:05:0c:3a:e8:b0:ec:9b:30:
         96:00:de:56:7e:b7:8c:29:9d:a1:c2:18:f0:a9:5f:d0:ed:47:
         a5:c5:81:fa:db:91:17:de:ba:df:36:ab:fe:d2:74:99:69:94:
         ec:24:4e:48
-----BEGIN CERTIFICATE-----
MIIDjzCCAnegAwIBAgIBATANBgkqhkiG9w0BAQsFADAZMRcwFQYDVQQDDA5TZXJ2
ZXIgUm9vdCBDQTAeFw0xNjEwMTQxNjI5MTRaFw0xNzEwMTUxNjI5MTRaMGgxCzAJ
BgNVBAYTAlVTMRIwEAYDVQQIDAlTb21lIENpdHkxFjAUBgNVBAcMDVNvbWUgTG9j
YXRpb24xFDASBgNVBAoMC1NlcnZlciBOYW1lMRcwFQYDVQQDDA4xOTMuMjA0LjU5
LjEyMzCCASIwDQYJKoZIhvcNAQEBBQADggEPADCCAQoCggEBAMZn8HmTZLFClAU0
jaF4+GYLPz+aS3ZtzbJTGDxjIHzKMM/39yAJKFxbt0S6a7F9x/zOudorwBboE7mN
RsTADmti8pq6BTrWvCwiZIyIZOv94k5B7YDT+IxFZw/rb23c/2IJiXw5L/bGCMPV
7UEn3/dFaaPfhMQiqg5c1yICuc4jEjCQUK4YbFuRTrsOGfNGrvkYkm5+7H/iXfc2
qaKwKkupazRw8U/F4qySPSKd1664NBatl5eO4pREUNUy6VtnqeD1O85Tj0HhaZh7
lsfdgKWLEamtaX4owvf9mBneTzttI9bHFT9x+i0jGf/6mcyM/txKU3ocqnYG4CvO
GAtKT68CAwEAAaOBkjCBjzAMBgNVHRMBAf8EAjAAMB0GA1UdDgQWBBT6LkXbluZH
UESEuPIScHwtsp4hozAfBgNVHSMEGDAWgBRlgzjLEMTZD/EcoLwM0hOow43KxjAd
BgNVHSUEFjAUBggrBgEFBQcDAQYIKwYBBQUHAwIwIAYDVR0RBBkwF4IPYzNsYWIu
cG9saWJhLml0hwTBzDt7MA0GCSqGSIb3DQEBCwUAA4IBAQCrpl2c9k5VvoaFyhWo
TZIvrKHCf8taq59M1hi4wS85i4sF41ZTiPxqNwhcEMRaxzDbi2qIFUhYQ7Xjl/I/
VfJ+S4Xwczo3XvxHADiC6ZQWIqrARylMVAj+sp2NvimLEe4m6epkXtKsIlgnBSn5
0aMG1CjCJrCvweA9jrvPFYqKiOy4KZaEq89AkSpiustSjuBV2hHzF0oEPRgfBVpq
V5f9u/f/cFf7KAEfOWKVQUGilRs1+U1y8WyTXYEjfHETkIC4nxeQYnXsKZxXd1XH
8R/MBQw66LDsmzCWAN5WfreMKZ2hwhjwqV/Q7UelxYH625EX3rrfNqv+0nSZaZTs
JE5I
-----END CERTIFICATE-----
