Certificate:
    Data:
        Version: 3 (0x2)
        Serial Number:
            ba:38:1f:10:11:53:fb:d8
    Signature Algorithm: sha256WithRSAEncryption
        Issuer: CN=Server Root CA
        Validity
            Not Before: Oct 14 16:01:04 2016 GMT
            Not After : Oct 15 16:01:04 2017 GMT
        Subject: CN=Server Root CA
        Subject Public Key Info:
            Public Key Algorithm: rsaEncryption
                Public-Key: (2048 bit)
                Modulus:
                    00:da:f1:0c:e1:ba:89:d8:d1:52:20:bb:64:73:97:
                    18:12:6a:0d:7d:3f:e2:42:9a:94:9f:4b:3f:0a:07:
                    20:2c:10:7f:cd:59:7d:88:2f:1c:48:76:3a:b2:90:
                    9e:74:38:77:77:b9:80:e6:e7:95:ef:d9:58:61:6c:
                    54:67:9d:0e:ae:8d:c3:9c:e0:3a:27:66:8e:ab:d7:
                    36:99:30:6c:a1:8d:66:eb:6b:a6:9f:92:49:4a:eb:
                    e4:22:af:7a:c7:94:8a:fd:6f:97:02:91:44:ad:fd:
                    6c:16:b8:2e:33:2e:ca:ff:85:bf:4e:7f:70:d2:23:
                    3d:7f:ff:ac:31:77:62:d4:6e:09:29:9d:26:c2:df:
                    b5:d3:06:88:35:9c:12:7b:56:e7:8b:4c:85:80:69:
                    45:76:2e:2a:75:14:48:e1:aa:19:0a:3d:c3:ce:74:
                    80:86:e6:2a:bd:ed:d7:8e:30:70:06:fb:81:00:18:
                    7f:30:71:c2:8c:b2:8b:fe:94:10:91:46:0b:76:1a:
                    aa:ca:cd:cf:84:ab:58:1b:44:8d:5e:9f:85:3d:69:
                    55:3f:ee:03:15:a3:29:de:54:90:ed:9f:76:4f:c6:
                    59:83:23:94:97:ee:25:2b:04:ce:d5:de:ba:76:ab:
                    41:04:be:5e:c8:3f:3e:fb:32:40:39:5e:1b:c0:96:
                    34:0b
                Exponent: 65537 (0x10001)
        X509v3 extensions:
            X509v3 Basic Constraints: critical
                CA:TRUE
            X509v3 Subject Key Identifier: 
                C6:88:8C:2A:5A:3C:07:18:46:CF:55:D8:40:CC:87:F7:BA:D5:B9:2F
            X509v3 Key Usage: critical
                Certificate Sign, CRL Sign
    Signature Algorithm: sha256WithRSAEncryption
         c6:b2:2f:a8:52:f4:87:fb:0c:a4:f8:46:ce:84:3c:65:ea:92:
         f8:dd:06:4a:a3:70:6f:b3:2f:bf:07:83:62:b8:66:cf:81:28:
         a8:b6:60:c5:64:ff:cd:0c:4e:49:f4:8b:40:07:7f:f8:25:ae:
         d8:56:72:c0:7b:f5:d5:b9:fa:00:81:ca:98:1a:fe:dd:e2:d7:
         5b:ad:9c:33:0c:0b:e6:11:b9:49:de:1b:99:fa:21:b7:76:96:
         60:f2:cc:36:11:61:02:eb:b6:5e:57:da:0c:74:34:fd:92:90:
         5a:e0:95:0b:3f:53:b2:56:82:6d:1f:1c:61:9f:bc:4a:b7:f0:
         b5:4f:7f:66:21:fa:81:19:1d:9e:39:35:68:ca:b5:6d:a0:31:
         c9:b3:39:e9:72:77:5d:da:07:d2:5f:9d:88:fc:49:b3:d7:3e:
         16:06:c5:a8:2b:8b:d5:06:bb:5d:59:5d:ce:0c:d1:fc:b5:ac:
         32:15:e4:7f:89:1f:2d:9a:9f:6a:df:df:de:e9:1b:43:9b:ee:
         89:a1:db:2b:75:96:fd:d8:26:7d:de:ad:d2:1c:2a:a0:d7:a5:
         83:0a:64:2f:86:92:3b:2c:35:47:02:6b:4e:24:f6:aa:3e:66:
         92:24:ec:6a:5f:14:3f:1e:17:11:b8:35:74:60:4c:fd:12:69:
         b1:8b:f8:4c
-----BEGIN CERTIFICATE-----
MIIC9zCCAd+gAwIBAgIJALo4HxARU/vYMA0GCSqGSIb3DQEBCwUAMBkxFzAVBgNV
BAMMDlNlcnZlciBSb290IENBMB4XDTE2MTAxNDE2MDEwNFoXDTE3MTAxNTE2MDEw
NFowGTEXMBUGA1UEAwwOU2VydmVyIFJvb3QgQ0EwggEiMA0GCSqGSIb3DQEBAQUA
A4IBDwAwggEKAoIBAQDa8QzhuonY0VIgu2RzlxgSag19P+JCmpSfSz8KByAsEH/N
WX2ILxxIdjqykJ50OHd3uYDm55Xv2VhhbFRnnQ6ujcOc4DonZo6r1zaZMGyhjWbr
a6afkklK6+Qir3rHlIr9b5cCkUSt/WwWuC4zLsr/hb9Of3DSIz1//6wxd2LUbgkp
nSbC37XTBog1nBJ7VueLTIWAaUV2Lip1FEjhqhkKPcPOdICG5iq97deOMHAG+4EA
GH8wccKMsov+lBCRRgt2GqrKzc+Eq1gbRI1en4U9aVU/7gMVoyneVJDtn3ZPxlmD
I5SX7iUrBM7V3rp2q0EEvl7IPz77MkA5XhvAljQLAgMBAAGjQjBAMA8GA1UdEwEB
/wQFMAMBAf8wHQYDVR0OBBYEFMaIjCpaPAcYRs9V2EDMh/e61bkvMA4GA1UdDwEB
/wQEAwIBBjANBgkqhkiG9w0BAQsFAAOCAQEAxrIvqFL0h/sMpPhGzoQ8ZeqS+N0G
SqNwb7MvvweDYrhmz4EoqLZgxWT/zQxOSfSLQAd/+CWu2FZywHv11bn6AIHKmBr+
3eLXW62cMwwL5hG5Sd4bmfoht3aWYPLMNhFhAuu2XlfaDHQ0/ZKQWuCVCz9TslaC
bR8cYZ+8SrfwtU9/ZiH6gRkdnjk1aMq1baAxybM56XJ3XdoH0l+diPxJs9c+FgbF
qCuL1Qa7XVldzgzR/LWsMhXkf4kfLZqfat/f3ukbQ5vuiaHbK3WW/dgmfd6t0hwq
oNelgwpkL4aSOyw1RwJrTiT2qj5mkiTsal8UPx4XEbg1dGBM/RJpsYv4TA==
-----END CERTIFICATE-----
