Certificate:
    Data:
        Version: 3 (0x2)
        Serial Number: 1 (0x1)
    Signature Algorithm: sha256WithRSAEncryption
        Issuer: CN=Server Root CA
        Validity
            Not Before: Oct 14 16:01:04 2016 GMT
            Not After : Oct 15 16:01:04 2017 GMT
        Subject: C=US, ST=Some City, L=Some Location, O=Server Name, CN=127.0.0.1
        Subject Public Key Info:
            Public Key Algorithm: rsaEncryption
                Public-Key: (2048 bit)
                Modulus:
                    00:97:50:a7:3d:dc:57:bc:3f:f1:69:4f:18:ac:6a:
                    3a:2d:9a:d9:a9:ed:fa:2b:65:e3:9b:45:d6:f6:c7:
                    f3:f8:f2:d9:b0:77:fa:cb:92:f3:26:13:76:dd:29:
                    18:6c:bd:76:87:73:49:d3:e0:06:c9:53:93:a6:22:
                    dc:0d:cd:8e:da:f4:a3:d6:52:43:96:3d:fe:e4:24:
                    56:38:1a:e8:04:56:95:7e:78:72:3b:82:b0:bc:29:
                    73:27:f6:b5:7d:9e:c5:d3:c3:50:8f:1e:86:0f:23:
                    15:5d:e0:c4:0b:76:9b:22:a2:90:6a:1c:ae:32:1a:
                    ff:de:86:4b:fd:48:bb:67:37:c8:6d:17:bb:55:3f:
                    3d:89:07:05:b1:0a:06:3c:c9:1d:35:9b:86:38:26:
                    11:7d:6e:b3:f7:1d:bb:bd:fc:08:30:92:bf:45:89:
                    37:6c:71:4b:b2:57:2e:42:2d:1b:55:15:62:52:00:
                    69:67:49:4b:0a:c9:08:c3:3a:10:e7:5b:2c:5b:e2:
                    a2:9e:1c:20:c7:84:fb:78:db:d1:f4:ae:ba:06:52:
                    a6:c6:af:0b:87:74:87:7c:33:a4:64:0a:ff:2b:c6:
                    78:3d:37:e7:9b:4e:a5:51:1e:da:a6:85:f4:79:94:
                    10:0c:49:8c:88:0b:d9:06:0f:9a:3b:ad:82:25:be:
                    4c:ad
                Exponent: 65537 (0x10001)
        X509v3 extensions:
            X509v3 Basic Constraints: critical
                CA:FALSE
            X509v3 Subject Key Identifier: 
                6E:1B:78:D8:D7:08:88:92:E7:04:0A:2D:BC:F2:23:31:79:4F:A2:42
            X509v3 Authority Key Identifier: 
                keyid:C6:88:8C:2A:5A:3C:07:18:46:CF:55:D8:40:CC:87:F7:BA:D5:B9:2F

            X509v3 Extended Key Usage: 
                TLS Web Server Authentication, TLS Web Client Authentication
            X509v3 Subject Alternative Name: 
                DNS:localhost, IP Address:127.0.0.1
    Signature Algorithm: sha256WithRSAEncryption
         38:38:bc:eb:06:e0:58:e1:25:8a:84:93:58:17:59:5d:59:37:
         35:0e:f8:16:09:3e:c1:eb:bf:d6:d8:a8:4a:bb:4e:a3:b2:90:
         2a:0c:4d:b2:c5:09:98:24:a0:a5:03:62:6c:e4:61:97:d6:88:
         36:ca:8c:6c:8c:64:93:de:58:f4:dd:7c:6d:0f:de:9e:78:91:
         51:cc:ae:9b:49:54:f4:6c:1a:da:91:7e:e6:fb:26:66:54:c7:
         2c:f1:a2:a9:9c:ef:ee:21:a7:91:8f:bf:b0:f7:a1:24:4c:12:
         01:89:28:e9:ee:f8:48:0c:ed:6a:4a:7d:57:65:19:72:2b:b7:
         e5:4e:b1:0b:33:c9:d9:f8:55:35:e9:b3:f8:47:0d:c0:8e:a4:
         cb:df:27:4e:ab:17:e4:ec:73:5a:2e:cc:e9:bd:00:67:2a:75:
         b6:37:8a:b0:ce:be:3b:70:b9:ab:30:15:a8:f6:53:72:b3:01:
         e0:0e:62:ce:8f:83:a9:c5:af:fe:6e:21:7c:1f:db:de:52:c3:
         0c:34:6c:b7:06:39:38:da:64:d1:db:9e:5c:b8:b9:68:f6:b4:
         aa:b7:9c:f4:b1:1d:9f:80:13:33:0e:87:e1:43:cf:28:70:ee:
         5c:63:98:97:2e:1d:76:5d:74:3b:21:50:6b:f7:a9:6a:47:05:
         df:db:fa:5c
-----BEGIN CERTIFICATE-----
MIIDhDCCAmygAwIBAgIBATANBgkqhkiG9w0BAQsFADAZMRcwFQYDVQQDDA5TZXJ2
ZXIgUm9vdCBDQTAeFw0xNjEwMTQxNjAxMDRaFw0xNzEwMTUxNjAxMDRaMGMxCzAJ
BgNVBAYTAlVTMRIwEAYDVQQIDAlTb21lIENpdHkxFjAUBgNVBAcMDVNvbWUgTG9j
YXRpb24xFDASBgNVBAoMC1NlcnZlciBOYW1lMRIwEAYDVQQDDAkxMjcuMC4wLjEw
ggEiMA0GCSqGSIb3DQEBAQUAA4IBDwAwggEKAoIBAQCXUKc93Fe8P/FpTxisajot
mtmp7forZeObRdb2x/P48tmwd/rLkvMmE3bdKRhsvXaHc0nT4AbJU5OmItwNzY7a
9KPWUkOWPf7kJFY4GugEVpV+eHI7grC8KXMn9rV9nsXTw1CPHoYPIxVd4MQLdpsi
opBqHK4yGv/ehkv9SLtnN8htF7tVPz2JBwWxCgY8yR01m4Y4JhF9brP3Hbu9/Agw
kr9FiTdscUuyVy5CLRtVFWJSAGlnSUsKyQjDOhDnWyxb4qKeHCDHhPt429H0rroG
UqbGrwuHdId8M6RkCv8rxng9N+ebTqVRHtqmhfR5lBAMSYyIC9kGD5o7rYIlvkyt
AgMBAAGjgYwwgYkwDAYDVR0TAQH/BAIwADAdBgNVHQ4EFgQUbht42NcIiJLnBAot
vPIjMXlPokIwHwYDVR0jBBgwFoAUxoiMKlo8BxhGz1XYQMyH97rVuS8wHQYDVR0l
BBYwFAYIKwYBBQUHAwEGCCsGAQUFBwMCMBoGA1UdEQQTMBGCCWxvY2FsaG9zdIcE
fwAAATANBgkqhkiG9w0BAQsFAAOCAQEAODi86wbgWOElioSTWBdZXVk3NQ74Fgk+
weu/1tioSrtOo7KQKgxNssUJmCSgpQNibORhl9aINsqMbIxkk95Y9N18bQ/enniR
Ucyum0lU9Gwa2pF+5vsmZlTHLPGiqZzv7iGnkY+/sPehJEwSAYko6e74SAztakp9
V2UZciu35U6xCzPJ2fhVNemz+EcNwI6ky98nTqsX5OxzWi7M6b0AZyp1tjeKsM6+
O3C5qzAVqPZTcrMB4A5izo+DqcWv/m4hfB/b3lLDDDRstwY5ONpk0dueXLi5aPa0
qrec9LEdn4ATMw6H4UPPKHDuXGOYly4ddl10OyFQa/epakcF39v6XA==
-----END CERTIFICATE-----
